; Function Attrs: mustprogress nofree norecurse nosync nounwind willreturn memory(read, inaccessiblemem: none) uwtable
define range(i32 -10000, 1) i32 @PaUtil_ValidateStreamPointer(ptr noundef readonly %0) local_unnamed_addr #9 {
  %2 = load i32, ptr @initializationCount_, align 4
  %.not = icmp eq i32 %2, 0
  br i1 %.not, label %7, label %3

3:                                                ; preds = %1
  %4 = icmp eq ptr %0, null
  br i1 %4, label %7, label %5

5:                                                ; preds = %3
  %6 = load i64, ptr %0, align 8
  %.not3 = icmp eq i64 %6, 405222981
  %. = select i1 %.not3, i32 0, i32 -9988
  br label %7

7:                                                ; preds = %5, %3, %1
  %.0 = phi i32 [ -10000, %1 ], [ -9988, %3 ], [ %., %5 ]
  ret i32 %.0
}